; ModuleID = '34/1504.c'
source_filename = "34/1504.c"
target datalayout = "e-m:e-p270:32:32-p271:32:32-p272:64:64-i64:64-f80:128-n8:16:32:64-S128"
target triple = "x86_64-pc-linux-gnu"

@.str = private unnamed_addr constant [5 x i8] c"End\0A\00", align 1
@.str.1 = private unnamed_addr constant [11 x i8] c"%d*3+1=%d\0A\00", align 1
@.str.2 = private unnamed_addr constant [9 x i8] c"%d/2=%d\0A\00", align 1
@.str.3 = private unnamed_addr constant [4 x i8] c"End\00", align 1
@.str.4 = private unnamed_addr constant [3 x i8] c"%d\00", align 1

; Function Attrs: noinline nounwind uwtable
define dso_local i32 @step(i32 %0) #0 {
  %2 = alloca i32, align 4
  store i32 %0, i32* %2, align 4
  %3 = load i32, i32* %2, align 4
  %4 = icmp eq i32 %3, 1
  br i1 %4, label %5, label %7

5:                                                ; preds = %1
  %6 = call i32 (i8*, ...) @printf(i8* getelementptr inbounds ([5 x i8], [5 x i8]* @.str, i64 0, i64 0))
  br label %23

7:                                                ; preds = %1
  %8 = load i32, i32* %2, align 4
  %9 = srem i32 %8, 2
  %10 = icmp eq i32 %9, 1
  br i1 %10, label %11, label %17

11:                                               ; preds = %7
  %12 = load i32, i32* %2, align 4
  %13 = load i32, i32* %2, align 4
  %14 = mul nsw i32 3, %13
  %15 = add nsw i32 %14, 1
  %16 = call i32 (i8*, ...) @printf(i8* getelementptr inbounds ([11 x i8], [11 x i8]* @.str.1, i64 0, i64 0), i32 %12, i32 %15)
  br label %22

17:                                               ; preds = %7
  %18 = load i32, i32* %2, align 4
  %19 = load i32, i32* %2, align 4
  %20 = sdiv i32 %19, 2
  %21 = call i32 (i8*, ...) @printf(i8* getelementptr inbounds ([9 x i8], [9 x i8]* @.str.2, i64 0, i64 0), i32 %18, i32 %20)
  br label %22

22:                                               ; preds = %17, %11
  br label %23

23:                                               ; preds = %22, %5
  ret i32 0
}

declare dso_local i32 @printf(i8*, ...) #1

; Function Attrs: noinline nounwind uwtable
define dso_local i32 @jiaogu(i32 %0) #0 {
  %2 = alloca i32, align 4
  store i32 %0, i32* %2, align 4
  %3 = load i32, i32* %2, align 4
  %4 = icmp eq i32 %3, 1
  br i1 %4, label %5, label %7

5:                                                ; preds = %1
  %6 = call i32 (i8*, ...) @printf(i8* getelementptr inbounds ([4 x i8], [4 x i8]* @.str.3, i64 0, i64 0))
  br label %23

7:                                                ; preds = %1
  %8 = load i32, i32* %2, align 4
  %9 = call i32 @step(i32 %8)
  %10 = load i32, i32* %2, align 4
  %11 = srem i32 %10, 2
  %12 = icmp eq i32 %11, 1
  br i1 %12, label %13, label %18

13:                                               ; preds = %7
  %14 = load i32, i32* %2, align 4
  %15 = mul nsw i32 3, %14
  %16 = add nsw i32 %15, 1
  %17 = call i32 @jiaogu(i32 %16)
  br label %22

18:                                               ; preds = %7
  %19 = load i32, i32* %2, align 4
  %20 = sdiv i32 %19, 2
  %21 = call i32 @jiaogu(i32 %20)
  br label %22

22:                                               ; preds = %18, %13
  br label %23

23:                                               ; preds = %22, %5
  ret i32 0
}

; Function Attrs: noinline nounwind uwtable
define dso_local i32 @main() #0 {
  %1 = alloca i32, align 4
  %2 = alloca i32, align 4
  store i32 0, i32* %1, align 4
  %3 = call i32 (i8*, ...) @__isoc99_scanf(i8* getelementptr inbounds ([3 x i8], [3 x i8]* @.str.4, i64 0, i64 0), i32* %2)
  %4 = load i32, i32* %2, align 4
  %5 = call i32 @jiaogu(i32 %4)
  ret i32 0
}

declare dso_local i32 @__isoc99_scanf(i8*, ...) #1


!llvm.module.flags = !{!0}
!llvm.ident = !{!1}

!0 = !{i32 1, !"wchar_size", i32 4}
!1 = !{!"clang version 10.0.0-4ubuntu1 "}
